target datalayout = "e-m:e-p270:32:32-p271:32:32-p272:64:64-i64:64-i128:128-f80:128-n8:16:32:64-S128"
target triple = "x86_64-pc-linux-gnu"

; Function Attrs: mustprogress nounwind uwtable
define i64 @modp_b64_decode(ptr noundef %0, ptr noundef %1, i64 noundef %2) #0 {
  %4 = alloca i64, align 8
  %5 = alloca ptr, align 8
  %6 = alloca ptr, align 8
  %7 = alloca i64, align 8
  %8 = alloca i64, align 8
  %9 = alloca i32, align 4
  %10 = alloca i64, align 8
  %11 = alloca ptr, align 8
  %12 = alloca i32, align 4
  %13 = alloca ptr, align 8
  %14 = alloca i32, align 4
  store ptr %0, ptr %5, align 8, !tbaa !3
  store ptr %1, ptr %6, align 8, !tbaa !3
  store i64 %2, ptr %7, align 8, !tbaa !8
  %15 = load i64, ptr %7, align 8, !tbaa !8
  %16 = icmp eq i64 %15, 0
  br i1 %16, label %17, label %18

17:                                               ; preds = %3
  store i64 0, ptr %4, align 8
  br label %232

18:                                               ; preds = %3
  %19 = load i64, ptr %7, align 8, !tbaa !8
  %20 = icmp ult i64 %19, 4
  br i1 %20, label %25, label %21

21:                                               ; preds = %18
  %22 = load i64, ptr %7, align 8, !tbaa !8
  %23 = urem i64 %22, 4
  %24 = icmp ne i64 %23, 0
  br i1 %24, label %25, label %26

25:                                               ; preds = %21, %18
  store i64 -1, ptr %4, align 8
  br label %232

26:                                               ; preds = %21
  %27 = load ptr, ptr %6, align 8, !tbaa !3
  %28 = load i64, ptr %7, align 8, !tbaa !8
  %29 = sub i64 %28, 1
  %30 = getelementptr inbounds nuw i8, ptr %27, i64 %29
  %31 = load i8, ptr %30, align 1, !tbaa !10
  %32 = sext i8 %31 to i32
  %33 = icmp eq i32 %32, 61
  br i1 %33, label %34, label %48

34:                                               ; preds = %26
  %35 = load i64, ptr %7, align 8, !tbaa !8
  %36 = add i64 %35, -1
  store i64 %36, ptr %7, align 8, !tbaa !8
  %37 = load ptr, ptr %6, align 8, !tbaa !3
  %38 = load i64, ptr %7, align 8, !tbaa !8
  %39 = sub i64 %38, 1
  %40 = getelementptr inbounds nuw i8, ptr %37, i64 %39
  %41 = load i8, ptr %40, align 1, !tbaa !10
  %42 = sext i8 %41 to i32
  %43 = icmp eq i32 %42, 61
  br i1 %43, label %44, label %47

44:                                               ; preds = %34
  %45 = load i64, ptr %7, align 8, !tbaa !8
  %46 = add i64 %45, -1
  store i64 %46, ptr %7, align 8, !tbaa !8
  br label %47

47:                                               ; preds = %44, %34
  br label %48

48:                                               ; preds = %47, %26
  call void @llvm.lifetime.start.p0(i64 8, ptr %8) #2
  call void @llvm.lifetime.start.p0(i64 4, ptr %9) #2
  %49 = load i64, ptr %7, align 8, !tbaa !8
  %50 = urem i64 %49, 4
  %51 = trunc i64 %50 to i32
  store i32 %51, ptr %9, align 4, !tbaa !13
  call void @llvm.lifetime.start.p0(i64 8, ptr %10) #2
  %52 = load i32, ptr %9, align 4, !tbaa !13
  %53 = icmp eq i32 %52, 0
  br i1 %53, label %54, label %58

54:                                               ; preds = %48
  %55 = load i64, ptr %7, align 8, !tbaa !8
  %56 = udiv i64 %55, 4
  %57 = sub i64 %56, 1
  br label %61

58:                                               ; preds = %48
  %59 = load i64, ptr %7, align 8, !tbaa !8
  %60 = udiv i64 %59, 4
  br label %61

61:                                               ; preds = %58, %54
  %62 = phi i64 [ %57, %54 ], [ %60, %58 ]
  store i64 %62, ptr %10, align 8, !tbaa !8
  call void @llvm.lifetime.start.p0(i64 8, ptr %11) #2
  %63 = load ptr, ptr %5, align 8, !tbaa !3
  store ptr %63, ptr %11, align 8, !tbaa !3
  call void @llvm.lifetime.start.p0(i64 4, ptr %12) #2
  store i32 0, ptr %12, align 4, !tbaa !13
  call void @llvm.lifetime.start.p0(i64 8, ptr %13) #2
  %64 = load ptr, ptr %6, align 8, !tbaa !3
  store ptr %64, ptr %13, align 8, !tbaa !3
  store i64 0, ptr %8, align 8, !tbaa !8
  br label %65

65:                                               ; preds = %113, %61
  %66 = load i64, ptr %8, align 8, !tbaa !8
  %67 = load i64, ptr %10, align 8, !tbaa !8
  %68 = icmp ult i64 %66, %67
  br i1 %68, label %69, label %118

69:                                               ; preds = %65
  %70 = load ptr, ptr %13, align 8, !tbaa !3
  %71 = getelementptr inbounds i8, ptr %70, i64 0
  %72 = load i8, ptr %71, align 1, !tbaa !10
  %73 = zext i8 %72 to i64
  %74 = getelementptr inbounds nuw [256 x i32], ptr @_ZL2d0, i64 0, i64 %73
  %75 = load i32, ptr %74, align 4, !tbaa !13
  %76 = load ptr, ptr %13, align 8, !tbaa !3
  %77 = getelementptr inbounds i8, ptr %76, i64 1
  %78 = load i8, ptr %77, align 1, !tbaa !10
  %79 = zext i8 %78 to i64
  %80 = getelementptr inbounds nuw [256 x i32], ptr @_ZL2d1, i64 0, i64 %79
  %81 = load i32, ptr %80, align 4, !tbaa !13
  %82 = or i32 %75, %81
  %83 = load ptr, ptr %13, align 8, !tbaa !3
  %84 = getelementptr inbounds i8, ptr %83, i64 2
  %85 = load i8, ptr %84, align 1, !tbaa !10
  %86 = zext i8 %85 to i64
  %87 = getelementptr inbounds nuw [256 x i32], ptr @_ZL2d2, i64 0, i64 %86
  %88 = load i32, ptr %87, align 4, !tbaa !13
  %89 = or i32 %82, %88
  %90 = load ptr, ptr %13, align 8, !tbaa !3
  %91 = getelementptr inbounds i8, ptr %90, i64 3
  %92 = load i8, ptr %91, align 1, !tbaa !10
  %93 = zext i8 %92 to i64
  %94 = getelementptr inbounds nuw [256 x i32], ptr @_ZL2d3, i64 0, i64 %93
  %95 = load i32, ptr %94, align 4, !tbaa !13
  %96 = or i32 %89, %95
  store i32 %96, ptr %12, align 4, !tbaa !13
  %97 = load i32, ptr %12, align 4, !tbaa !13
  %98 = icmp uge i32 %97, 33554431
  br i1 %98, label %99, label %100

99:                                               ; preds = %69
  store i64 -1, ptr %4, align 8
  store i32 1, ptr %14, align 4
  br label %231

100:                                              ; preds = %69
  %101 = getelementptr inbounds i8, ptr %12, i64 0
  %102 = load i8, ptr %101, align 4, !tbaa !10
  %103 = load ptr, ptr %11, align 8, !tbaa !3
  %104 = getelementptr inbounds nuw i8, ptr %103, i32 1
  store ptr %104, ptr %11, align 8, !tbaa !3
  store i8 %102, ptr %103, align 1, !tbaa !10
  %105 = getelementptr inbounds i8, ptr %12, i64 1
  %106 = load i8, ptr %105, align 1, !tbaa !10
  %107 = load ptr, ptr %11, align 8, !tbaa !3
  %108 = getelementptr inbounds nuw i8, ptr %107, i32 1
  store ptr %108, ptr %11, align 8, !tbaa !3
  store i8 %106, ptr %107, align 1, !tbaa !10
  %109 = getelementptr inbounds i8, ptr %12, i64 2
  %110 = load i8, ptr %109, align 2, !tbaa !10
  %111 = load ptr, ptr %11, align 8, !tbaa !3
  %112 = getelementptr inbounds nuw i8, ptr %111, i32 1
  store ptr %112, ptr %11, align 8, !tbaa !3
  store i8 %110, ptr %111, align 1, !tbaa !10
  br label %113

113:                                              ; preds = %100
  %114 = load i64, ptr %8, align 8, !tbaa !8
  %115 = add i64 %114, 1
  store i64 %115, ptr %8, align 8, !tbaa !8
  %116 = load ptr, ptr %13, align 8, !tbaa !3
  %117 = getelementptr inbounds i8, ptr %116, i64 4
  store ptr %117, ptr %13, align 8, !tbaa !3
  br label %65, !llvm.loop !15

118:                                              ; preds = %65
  %119 = load i32, ptr %9, align 4, !tbaa !13
  switch i32 %119, label %191 [
    i32 0, label %120
    i32 1, label %166
    i32 2, label %175
  ]

120:                                              ; preds = %118
  %121 = load ptr, ptr %13, align 8, !tbaa !3
  %122 = getelementptr inbounds i8, ptr %121, i64 0
  %123 = load i8, ptr %122, align 1, !tbaa !10
  %124 = zext i8 %123 to i64
  %125 = getelementptr inbounds nuw [256 x i32], ptr @_ZL2d0, i64 0, i64 %124
  %126 = load i32, ptr %125, align 4, !tbaa !13
  %127 = load ptr, ptr %13, align 8, !tbaa !3
  %128 = getelementptr inbounds i8, ptr %127, i64 1
  %129 = load i8, ptr %128, align 1, !tbaa !10
  %130 = zext i8 %129 to i64
  %131 = getelementptr inbounds nuw [256 x i32], ptr @_ZL2d1, i64 0, i64 %130
  %132 = load i32, ptr %131, align 4, !tbaa !13
  %133 = or i32 %126, %132
  %134 = load ptr, ptr %13, align 8, !tbaa !3
  %135 = getelementptr inbounds i8, ptr %134, i64 2
  %136 = load i8, ptr %135, align 1, !tbaa !10
  %137 = zext i8 %136 to i64
  %138 = getelementptr inbounds nuw [256 x i32], ptr @_ZL2d2, i64 0, i64 %137
  %139 = load i32, ptr %138, align 4, !tbaa !13
  %140 = or i32 %133, %139
  %141 = load ptr, ptr %13, align 8, !tbaa !3
  %142 = getelementptr inbounds i8, ptr %141, i64 3
  %143 = load i8, ptr %142, align 1, !tbaa !10
  %144 = zext i8 %143 to i64
  %145 = getelementptr inbounds nuw [256 x i32], ptr @_ZL2d3, i64 0, i64 %144
  %146 = load i32, ptr %145, align 4, !tbaa !13
  %147 = or i32 %140, %146
  store i32 %147, ptr %12, align 4, !tbaa !13
  %148 = load i32, ptr %12, align 4, !tbaa !13
  %149 = icmp uge i32 %148, 33554431
  br i1 %149, label %150, label %151

150:                                              ; preds = %120
  store i64 -1, ptr %4, align 8
  store i32 1, ptr %14, align 4
  br label %231

151:                                              ; preds = %120
  %152 = getelementptr inbounds i8, ptr %12, i64 0
  %153 = load i8, ptr %152, align 4, !tbaa !10
  %154 = load ptr, ptr %11, align 8, !tbaa !3
  %155 = getelementptr inbounds nuw i8, ptr %154, i32 1
  store ptr %155, ptr %11, align 8, !tbaa !3
  store i8 %153, ptr %154, align 1, !tbaa !10
  %156 = getelementptr inbounds i8, ptr %12, i64 1
  %157 = load i8, ptr %156, align 1, !tbaa !10
  %158 = load ptr, ptr %11, align 8, !tbaa !3
  %159 = getelementptr inbounds nuw i8, ptr %158, i32 1
  store ptr %159, ptr %11, align 8, !tbaa !3
  store i8 %157, ptr %158, align 1, !tbaa !10
  %160 = getelementptr inbounds i8, ptr %12, i64 2
  %161 = load i8, ptr %160, align 2, !tbaa !10
  %162 = load ptr, ptr %11, align 8, !tbaa !3
  store i8 %161, ptr %162, align 1, !tbaa !10
  %163 = load i64, ptr %10, align 8, !tbaa !8
  %164 = add i64 %163, 1
  %165 = mul i64 %164, 3
  store i64 %165, ptr %4, align 8
  store i32 1, ptr %14, align 4
  br label %231

166:                                              ; preds = %118
  %167 = load ptr, ptr %13, align 8, !tbaa !3
  %168 = getelementptr inbounds i8, ptr %167, i64 0
  %169 = load i8, ptr %168, align 1, !tbaa !10
  %170 = zext i8 %169 to i64
  %171 = getelementptr inbounds nuw [256 x i32], ptr @_ZL2d0, i64 0, i64 %170
  %172 = load i32, ptr %171, align 4, !tbaa !13
  store i32 %172, ptr %12, align 4, !tbaa !13
  %173 = load i8, ptr %12, align 4, !tbaa !10
  %174 = load ptr, ptr %11, align 8, !tbaa !3
  store i8 %173, ptr %174, align 1, !tbaa !10
  br label %219

175:                                              ; preds = %118
  %176 = load ptr, ptr %13, align 8, !tbaa !3
  %177 = getelementptr inbounds i8, ptr %176, i64 0
  %178 = load i8, ptr %177, align 1, !tbaa !10
  %179 = zext i8 %178 to i64
  %180 = getelementptr inbounds nuw [256 x i32], ptr @_ZL2d0, i64 0, i64 %179
  %181 = load i32, ptr %180, align 4, !tbaa !13
  %182 = load ptr, ptr %13, align 8, !tbaa !3
  %183 = getelementptr inbounds i8, ptr %182, i64 1
  %184 = load i8, ptr %183, align 1, !tbaa !10
  %185 = zext i8 %184 to i64
  %186 = getelementptr inbounds nuw [256 x i32], ptr @_ZL2d1, i64 0, i64 %185
  %187 = load i32, ptr %186, align 4, !tbaa !13
  %188 = or i32 %181, %187
  store i32 %188, ptr %12, align 4, !tbaa !13
  %189 = load i8, ptr %12, align 4, !tbaa !10
  %190 = load ptr, ptr %11, align 8, !tbaa !3
  store i8 %189, ptr %190, align 1, !tbaa !10
  br label %219

191:                                              ; preds = %118
  %192 = load ptr, ptr %13, align 8, !tbaa !3
  %193 = getelementptr inbounds i8, ptr %192, i64 0
  %194 = load i8, ptr %193, align 1, !tbaa !10
  %195 = zext i8 %194 to i64
  %196 = getelementptr inbounds nuw [256 x i32], ptr @_ZL2d0, i64 0, i64 %195
  %197 = load i32, ptr %196, align 4, !tbaa !13
  %198 = load ptr, ptr %13, align 8, !tbaa !3
  %199 = getelementptr inbounds i8, ptr %198, i64 1
  %200 = load i8, ptr %199, align 1, !tbaa !10
  %201 = zext i8 %200 to i64
  %202 = getelementptr inbounds nuw [256 x i32], ptr @_ZL2d1, i64 0, i64 %201
  %203 = load i32, ptr %202, align 4, !tbaa !13
  %204 = or i32 %197, %203
  %205 = load ptr, ptr %13, align 8, !tbaa !3
  %206 = getelementptr inbounds i8, ptr %205, i64 2
  %207 = load i8, ptr %206, align 1, !tbaa !10
  %208 = zext i8 %207 to i64
  %209 = getelementptr inbounds nuw [256 x i32], ptr @_ZL2d2, i64 0, i64 %208
  %210 = load i32, ptr %209, align 4, !tbaa !13
  %211 = or i32 %204, %210
  store i32 %211, ptr %12, align 4, !tbaa !13
  %212 = getelementptr inbounds i8, ptr %12, i64 0
  %213 = load i8, ptr %212, align 4, !tbaa !10
  %214 = load ptr, ptr %11, align 8, !tbaa !3
  %215 = getelementptr inbounds nuw i8, ptr %214, i32 1
  store ptr %215, ptr %11, align 8, !tbaa !3
  store i8 %213, ptr %214, align 1, !tbaa !10
  %216 = getelementptr inbounds i8, ptr %12, i64 1
  %217 = load i8, ptr %216, align 1, !tbaa !10
  %218 = load ptr, ptr %11, align 8, !tbaa !3
  store i8 %217, ptr %218, align 1, !tbaa !10
  br label %219

219:                                              ; preds = %191, %175, %166
  %220 = load i32, ptr %12, align 4, !tbaa !13
  %221 = icmp uge i32 %220, 33554431
  br i1 %221, label %222, label %223

222:                                              ; preds = %219
  store i64 -1, ptr %4, align 8
  store i32 1, ptr %14, align 4
  br label %231

223:                                              ; preds = %219
  %224 = load i64, ptr %10, align 8, !tbaa !8
  %225 = mul i64 3, %224
  %226 = load i32, ptr %9, align 4, !tbaa !13
  %227 = mul nsw i32 6, %226
  %228 = sdiv i32 %227, 8
  %229 = sext i32 %228 to i64
  %230 = add i64 %225, %229
  store i64 %230, ptr %4, align 8
  store i32 1, ptr %14, align 4
  br label %231

231:                                              ; preds = %223, %222, %151, %150, %99
  call void @llvm.lifetime.end.p0(i64 8, ptr %13) #2
  call void @llvm.lifetime.end.p0(i64 4, ptr %12) #2
  call void @llvm.lifetime.end.p0(i64 8, ptr %11) #2
  call void @llvm.lifetime.end.p0(i64 8, ptr %10) #2
  call void @llvm.lifetime.end.p0(i64 4, ptr %9) #2
  call void @llvm.lifetime.end.p0(i64 8, ptr %8) #2
  br label %232

232:                                              ; preds = %231, %25, %17
  %233 = load i64, ptr %4, align 8
  ret i64 %233
}