; Function Attrs: mustprogress nofree norecurse nosync nounwind memory(argmem: readwrite) uwtable
define range(i64 -1, -4611686018427387904) i64 @modp_b64_decode(ptr noundef writeonly captures(none) %0, ptr noundef readonly captures(none) %1, i64 noundef %2) local_unnamed_addr #0 {
  %4 = icmp eq i64 %2, 0
  br i1 %4, label %.loopexit, label %5

5:                                                ; preds = %3
  %6 = icmp ugt i64 %2, 3
  %7 = and i64 %2, 3
  %.not = icmp eq i64 %7, 0
  %or.cond = and i1 %6, %.not
  br i1 %or.cond, label %8, label %.loopexit

8:                                                ; preds = %5
  %9 = getelementptr i8, ptr %1, i64 %2
  %10 = getelementptr i8, ptr %9, i64 -1
  %11 = load i8, ptr %10, align 1, !tbaa !3
  %12 = icmp eq i8 %11, 61
  br i1 %12, label %13, label %17

13:                                               ; preds = %8
  %14 = getelementptr i8, ptr %9, i64 -2
  %15 = load i8, ptr %14, align 1, !tbaa !3
  %16 = icmp eq i8 %15, 61
  %spec.select.v = select i1 %16, i64 -2, i64 -1
  %spec.select = add i64 %spec.select.v, %2
  br label %17

17:                                               ; preds = %13, %8
  %.0123 = phi i64 [ %2, %8 ], [ %spec.select, %13 ]
  %18 = trunc i64 %.0123 to i32
  %19 = and i32 %18, 3
  %20 = icmp eq i32 %19, 0
  %21 = lshr i64 %.0123, 2
  %22 = add nsw i64 %21, -1
  %23 = select i1 %20, i64 %22, i64 %21
  %.not133 = icmp eq i64 %23, 0
  br i1 %.not133, label %._crit_edge, label %.lr.ph

.lr.ph:                                           ; preds = %17, %47
  %.0131 = phi ptr [ %52, %47 ], [ %1, %17 ]
  %.0121130 = phi ptr [ %50, %47 ], [ %0, %17 ]
  %.0124129 = phi i64 [ %51, %47 ], [ 0, %17 ]
  %24 = load i8, ptr %.0131, align 1, !tbaa !3
  %25 = zext i8 %24 to i64
  %26 = getelementptr inbounds nuw [256 x i32], ptr @_ZL2d0, i64 0, i64 %25
  %27 = load i32, ptr %26, align 4, !tbaa !8
  %28 = getelementptr inbounds nuw i8, ptr %.0131, i64 1
  %29 = load i8, ptr %28, align 1, !tbaa !3
  %30 = zext i8 %29 to i64
  %31 = getelementptr inbounds nuw [256 x i32], ptr @_ZL2d1, i64 0, i64 %30
  %32 = load i32, ptr %31, align 4, !tbaa !8
  %33 = or i32 %32, %27
  %34 = getelementptr inbounds nuw i8, ptr %.0131, i64 2
  %35 = load i8, ptr %34, align 1, !tbaa !3
  %36 = zext i8 %35 to i64
  %37 = getelementptr inbounds nuw [256 x i32], ptr @_ZL2d2, i64 0, i64 %36
  %38 = load i32, ptr %37, align 4, !tbaa !8
  %39 = or i32 %33, %38
  %40 = getelementptr inbounds nuw i8, ptr %.0131, i64 3
  %41 = load i8, ptr %40, align 1, !tbaa !3
  %42 = zext i8 %41 to i64
  %43 = getelementptr inbounds nuw [256 x i32], ptr @_ZL2d3, i64 0, i64 %42
  %44 = load i32, ptr %43, align 4, !tbaa !8
  %45 = or i32 %39, %44
  %46 = icmp ugt i32 %45, 33554430
  br i1 %46, label %.loopexit, label %47

47:                                               ; preds = %.lr.ph
  %.sroa.0.0.extract.trunc = trunc i32 %45 to i8
  %.sroa.16.0.extract.shift = lshr i32 %45, 8
  %.sroa.16.0.extract.trunc = trunc i32 %.sroa.16.0.extract.shift to i8
  %.sroa.19.0.extract.shift = lshr i32 %45, 16
  %.sroa.19.0.extract.trunc = trunc i32 %.sroa.19.0.extract.shift to i8
  %48 = getelementptr inbounds nuw i8, ptr %.0121130, i64 1
  store i8 %.sroa.0.0.extract.trunc, ptr %.0121130, align 1, !tbaa !3
  %49 = getelementptr inbounds nuw i8, ptr %.0121130, i64 2
  store i8 %.sroa.16.0.extract.trunc, ptr %48, align 1, !tbaa !3
  %50 = getelementptr inbounds nuw i8, ptr %.0121130, i64 3
  store i8 %.sroa.19.0.extract.trunc, ptr %49, align 1, !tbaa !3
  %51 = add nuw i64 %.0124129, 1
  %52 = getelementptr inbounds nuw i8, ptr %.0131, i64 4
  %exitcond.not = icmp eq i64 %51, %23
  br i1 %exitcond.not, label %._crit_edge, label %.lr.ph, !llvm.loop !10

._crit_edge:                                      ; preds = %47, %17
  %.0121.lcssa = phi ptr [ %0, %17 ], [ %50, %47 ]
  %.0.lcssa = phi ptr [ %1, %17 ], [ %52, %47 ]
  %53 = load i8, ptr %.0.lcssa, align 1, !tbaa !3
  %54 = zext i8 %53 to i64
  %55 = getelementptr inbounds nuw [256 x i32], ptr @_ZL2d0, i64 0, i64 %54
  %56 = load i32, ptr %55, align 4, !tbaa !8
  switch i32 %19, label %default.unreachable [
    i32 0, label %57
    i32 1, label %82
    i32 2, label %83
    i32 3, label %90
  ]

57:                                               ; preds = %._crit_edge
  %58 = getelementptr inbounds nuw i8, ptr %.0.lcssa, i64 1
  %59 = load i8, ptr %58, align 1, !tbaa !3
  %60 = zext i8 %59 to i64
  %61 = getelementptr inbounds nuw [256 x i32], ptr @_ZL2d1, i64 0, i64 %60
  %62 = load i32, ptr %61, align 4, !tbaa !8
  %63 = getelementptr inbounds nuw i8, ptr %.0.lcssa, i64 2
  %64 = load i8, ptr %63, align 1, !tbaa !3
  %65 = zext i8 %64 to i64
  %66 = getelementptr inbounds nuw [256 x i32], ptr @_ZL2d2, i64 0, i64 %65
  %67 = load i32, ptr %66, align 4, !tbaa !8
  %68 = or i32 %62, %67
  %69 = getelementptr inbounds nuw i8, ptr %.0.lcssa, i64 3
  %70 = load i8, ptr %69, align 1, !tbaa !3
  %71 = zext i8 %70 to i64
  %72 = getelementptr inbounds nuw [256 x i32], ptr @_ZL2d3, i64 0, i64 %71
  %73 = load i32, ptr %72, align 4, !tbaa !8
  %74 = or i32 %68, %73
  %75 = or i32 %74, %56
  %76 = icmp ugt i32 %75, 33554430
  br i1 %76, label %.loopexit, label %77

77:                                               ; preds = %57
  %.sroa.0.0.extract.trunc20 = trunc i32 %75 to i8
  %.sroa.16.0.extract.shift32 = lshr i32 %75, 8
  %.sroa.16.0.extract.trunc33 = trunc i32 %.sroa.16.0.extract.shift32 to i8
  %.sroa.19.0.extract.shift52 = lshr i32 %75, 16
  %.sroa.19.0.extract.trunc53 = trunc i32 %.sroa.19.0.extract.shift52 to i8
  %78 = getelementptr inbounds nuw i8, ptr %.0121.lcssa, i64 1
  store i8 %.sroa.0.0.extract.trunc20, ptr %.0121.lcssa, align 1, !tbaa !3
  %79 = getelementptr inbounds nuw i8, ptr %.0121.lcssa, i64 2
  store i8 %.sroa.16.0.extract.trunc33, ptr %78, align 1, !tbaa !3
  store i8 %.sroa.19.0.extract.trunc53, ptr %79, align 1, !tbaa !3
  %80 = mul i64 %22, 3
  %81 = add i64 %80, 3
  br label %.loopexit

82:                                               ; preds = %._crit_edge
  %.sroa.0.0.extract.trunc25 = trunc i32 %56 to i8
  %.sroa.16.0.extract.shift39 = lshr i32 %56, 8
  store i8 %.sroa.0.0.extract.trunc25, ptr %.0121.lcssa, align 1, !tbaa !3
  br label %104

83:                                               ; preds = %._crit_edge
  %84 = getelementptr inbounds nuw i8, ptr %.0.lcssa, i64 1
  %85 = load i8, ptr %84, align 1, !tbaa !3
  %86 = zext i8 %85 to i64
  %87 = getelementptr inbounds nuw [256 x i32], ptr @_ZL2d1, i64 0, i64 %86
  %88 = load i32, ptr %87, align 4, !tbaa !8
  %89 = or i32 %88, %56
  %.sroa.0.0.extract.trunc26 = trunc i32 %89 to i8
  %.sroa.16.0.extract.shift41 = lshr i32 %89, 8
  store i8 %.sroa.0.0.extract.trunc26, ptr %.0121.lcssa, align 1, !tbaa !3
  br label %104

default.unreachable:                              ; preds = %._crit_edge
  unreachable

90:                                               ; preds = %._crit_edge
  %91 = getelementptr inbounds nuw i8, ptr %.0.lcssa, i64 1
  %92 = load i8, ptr %91, align 1, !tbaa !3
  %93 = zext i8 %92 to i64
  %94 = getelementptr inbounds nuw [256 x i32], ptr @_ZL2d1, i64 0, i64 %93
  %95 = load i32, ptr %94, align 4, !tbaa !8
  %96 = getelementptr inbounds nuw i8, ptr %.0.lcssa, i64 2
  %97 = load i8, ptr %96, align 1, !tbaa !3
  %98 = zext i8 %97 to i64
  %99 = getelementptr inbounds nuw [256 x i32], ptr @_ZL2d2, i64 0, i64 %98
  %100 = load i32, ptr %99, align 4, !tbaa !8
  %101 = or i32 %95, %100
  %102 = or i32 %101, %56
  %.sroa.0.0.extract.trunc27 = trunc i32 %102 to i8
  %.sroa.16.0.extract.shift43 = lshr i32 %102, 8
  %.sroa.16.0.extract.trunc44 = trunc i32 %.sroa.16.0.extract.shift43 to i8
  %103 = getelementptr inbounds nuw i8, ptr %.0121.lcssa, i64 1
  store i8 %.sroa.0.0.extract.trunc27, ptr %.0121.lcssa, align 1, !tbaa !3
  store i8 %.sroa.16.0.extract.trunc44, ptr %103, align 1, !tbaa !3
  br label %104

104:                                              ; preds = %90, %83, %82
  %.sroa.21.0.in.in = phi i32 [ %102, %90 ], [ %89, %83 ], [ %56, %82 ]
  %.sroa.16.0 = phi i32 [ %.sroa.16.0.extract.shift43, %90 ], [ %.sroa.16.0.extract.shift41, %83 ], [ %.sroa.16.0.extract.shift39, %82 ]
  %.sroa.16.0.insert.ext46 = shl nuw i32 %.sroa.16.0, 8
  %.sroa.16.0.insert.shift47 = and i32 %.sroa.16.0.insert.ext46, 65280
  %105 = and i32 %.sroa.21.0.in.in, -65281
  %.sroa.0.0.insert.insert31 = or disjoint i32 %.sroa.16.0.insert.shift47, %105
  %106 = icmp ugt i32 %.sroa.0.0.insert.insert31, 33554430
  br i1 %106, label %.loopexit, label %107

107:                                              ; preds = %104
  %108 = mul nuw i64 %21, 3
  %109 = mul nuw nsw i32 %19, 6
  %110 = lshr i32 %109, 3
  %111 = zext nneg i32 %110 to i64
  %112 = add nuw i64 %108, %111
  br label %.loopexit

.loopexit:                                        ; preds = %.lr.ph, %77, %107, %57, %104, %5, %3
  %.0122 = phi i64 [ 0, %3 ], [ -1, %5 ], [ %112, %107 ], [ %81, %77 ], [ -1, %57 ], [ -1, %104 ], [ -1, %.lr.ph ]
  ret i64 %.0122
}